target datalayout = "e-m:e-p270:32:32-p271:32:32-p272:64:64-i64:64-i128:128-f80:128-n8:16:32:64-S128"
target triple = "x86_64-pc-linux-gnu"

%class.array_rewriter = type <{ %class.array_util, i8, i8, i8, i8, i8, i8, [2 x i8] }>
%class.array_util = type { %class.array_recognizers, ptr }
%class.array_recognizers = type { i32 }

; Function Attrs: mustprogress nounwind uwtable
define linkonce_odr hidden noundef nonnull align 8 dereferenceable(976) ptr @_ZNK10array_util11get_managerEv(ptr noundef nonnull align 8 dereferenceable(16) %0) #7 comdat align 2 {
  %2 = alloca ptr, align 8
  store ptr %0, ptr %2, align 8, !tbaa !170
  %3 = load ptr, ptr %2, align 8
  %4 = getelementptr inbounds nuw %class.array_util, ptr %3, i32 0, i32 1
  %5 = load ptr, ptr %4, align 8, !tbaa !172
  ret ptr %5
}

; Function Attrs: mustprogress uwtable
define linkonce_odr hidden noundef nonnull align 8 dereferenceable(976) ptr @_ZNK14array_rewriter1mEv(ptr noundef nonnull align 8 dereferenceable(22) %0) #4 comdat align 2 {
  %2 = alloca ptr, align 8
  store ptr %0, ptr %2, align 8, !tbaa !3
  %3 = load ptr, ptr %2, align 8
  %4 = getelementptr inbounds nuw %class.array_rewriter, ptr %3, i32 0, i32 0
  %5 = call noundef nonnull align 8 dereferenceable(976) ptr @_ZNK10array_util11get_managerEv(ptr noundef nonnull align 8 dereferenceable(16) %4)
  ret ptr %5
}

; Function Attrs: mustprogress uwtable
define hidden noundef i32 @_ZN14array_rewriter12compare_argsEjPKP4exprS3_(ptr noundef nonnull align 8 dereferenceable(22) %0, i32 noundef %1, ptr noundef %2, ptr noundef %3) #4 align 2 {
  %5 = alloca i32, align 4
  %6 = alloca ptr, align 8
  %7 = alloca i32, align 4
  %8 = alloca ptr, align 8
  %9 = alloca ptr, align 8
  %10 = alloca i32, align 4
  %11 = alloca i32, align 4
  store ptr %0, ptr %6, align 8, !tbaa !3
  store i32 %1, ptr %7, align 4, !tbaa !32
  store ptr %2, ptr %8, align 8, !tbaa !33
  store ptr %3, ptr %9, align 8, !tbaa !33
  %12 = load ptr, ptr %6, align 8
  call void @llvm.lifetime.start.p0(i64 4, ptr %10) #3
  store i32 0, ptr %10, align 4, !tbaa !32
  br label %13

13:                                               ; preds = %46, %4
  %14 = load i32, ptr %10, align 4, !tbaa !32
  %15 = load i32, ptr %7, align 4, !tbaa !32
  %16 = icmp ult i32 %14, %15
  br i1 %16, label %18, label %17

17:                                               ; preds = %13
  store i32 2, ptr %11, align 4
  br label %49

18:                                               ; preds = %13
  %19 = load ptr, ptr %8, align 8, !tbaa !33
  %20 = load i32, ptr %10, align 4, !tbaa !32
  %21 = zext i32 %20 to i64
  %22 = getelementptr inbounds nuw ptr, ptr %19, i64 %21
  %23 = load ptr, ptr %22, align 8, !tbaa !40
  %24 = load ptr, ptr %9, align 8, !tbaa !33
  %25 = load i32, ptr %10, align 4, !tbaa !32
  %26 = zext i32 %25 to i64
  %27 = getelementptr inbounds nuw ptr, ptr %24, i64 %26
  %28 = load ptr, ptr %27, align 8, !tbaa !40
  %29 = icmp eq ptr %23, %28
  br i1 %29, label %30, label %31

30:                                               ; preds = %18
  br label %46

31:                                               ; preds = %18
  %32 = call noundef nonnull align 8 dereferenceable(976) ptr @_ZNK14array_rewriter1mEv(ptr noundef nonnull align 8 dereferenceable(22) %12)
  %33 = load ptr, ptr %8, align 8, !tbaa !33
  %34 = load i32, ptr %10, align 4, !tbaa !32
  %35 = zext i32 %34 to i64
  %36 = getelementptr inbounds nuw ptr, ptr %33, i64 %35
  %37 = load ptr, ptr %36, align 8, !tbaa !40
  %38 = load ptr, ptr %9, align 8, !tbaa !33
  %39 = load i32, ptr %10, align 4, !tbaa !32
  %40 = zext i32 %39 to i64
  %41 = getelementptr inbounds nuw ptr, ptr %38, i64 %40
  %42 = load ptr, ptr %41, align 8, !tbaa !40
  %43 = call noundef zeroext i1 @_ZNK11ast_manager12are_distinctEP4exprS1_(ptr noundef nonnull align 8 dereferenceable(976) %32, ptr noundef %37, ptr noundef %42)
  br i1 %43, label %44, label %45

44:                                               ; preds = %31
  store i32 -1, ptr %5, align 4
  store i32 1, ptr %11, align 4
  br label %49

45:                                               ; preds = %31
  store i32 0, ptr %5, align 4
  store i32 1, ptr %11, align 4
  br label %49

46:                                               ; preds = %30
  %47 = load i32, ptr %10, align 4, !tbaa !32
  %48 = add i32 %47, 1
  store i32 %48, ptr %10, align 4, !tbaa !32
  br label %13, !llvm.loop !149

49:                                               ; preds = %45, %44, %17
  call void @llvm.lifetime.end.p0(i64 4, ptr %10) #3
  %50 = load i32, ptr %11, align 4
  switch i32 %50, label %54 [
    i32 2, label %51
    i32 1, label %52
  ]

51:                                               ; preds = %49
  store i32 1, ptr %5, align 4
  br label %52

52:                                               ; preds = %51, %49
  %53 = load i32, ptr %5, align 4
  ret i32 %53

54:                                               ; preds = %49
  unreachable
}