; Function Attrs: mustprogress uwtable
define hidden noundef range(i32 -1, 2) i32 @_ZN14array_rewriter12compare_argsEjPKP4exprS3_(ptr noundef nonnull readonly align 8 captures(none) dereferenceable(22) %0, i32 noundef %1, ptr noundef readonly captures(none) %2, ptr noundef readonly captures(none) %3) local_unnamed_addr #3 align 2 {
  %.not16.not = icmp eq i32 %1, 0
  br i1 %.not16.not, label %.loopexit, label %.lr.ph.preheader

.lr.ph.preheader:                                 ; preds = %4
  %wide.trip.count = zext i32 %1 to i64
  br label %.lr.ph

5:                                                ; preds = %.lr.ph
  %indvars.iv.next = add nuw nsw i64 %indvars.iv, 1
  %exitcond.not = icmp eq i64 %indvars.iv.next, %wide.trip.count
  br i1 %exitcond.not, label %.loopexit, label %.lr.ph, !llvm.loop !122

.lr.ph:                                           ; preds = %.lr.ph.preheader, %5
  %indvars.iv = phi i64 [ 0, %.lr.ph.preheader ], [ %indvars.iv.next, %5 ]
  %6 = getelementptr inbounds nuw ptr, ptr %2, i64 %indvars.iv
  %7 = load ptr, ptr %6, align 8, !tbaa !24
  %8 = getelementptr inbounds nuw ptr, ptr %3, i64 %indvars.iv
  %9 = load ptr, ptr %8, align 8, !tbaa !24
  %10 = icmp eq ptr %7, %9
  br i1 %10, label %5, label %11

11:                                               ; preds = %.lr.ph
  %12 = getelementptr inbounds nuw i8, ptr %0, i64 8
  %13 = load ptr, ptr %12, align 8, !tbaa !26
  %14 = tail call noundef zeroext i1 @_ZNK11ast_manager12are_distinctEP4exprS1_(ptr noundef nonnull align 8 dereferenceable(976) %13, ptr noundef %7, ptr noundef %9)
  %. = sext i1 %14 to i32
  br label %.loopexit

.loopexit:                                        ; preds = %5, %4, %11
  %spec.select = phi i32 [ %., %11 ], [ 1, %4 ], [ 1, %5 ]
  ret i32 %spec.select
}